; Function Attrs: nounwind uwtable
define hidden ptr @mpd_new(ptr noundef %0) local_unnamed_addr #4 {
  %2 = load i64, ptr @MPD_MINALLOC, align 8, !tbaa !8
  %3 = load ptr, ptr @mpd_mallocfunc, align 8, !tbaa !3
  %4 = tail call ptr %3(i64 noundef 48) #9
  %5 = icmp eq ptr %4, null
  br i1 %5, label %17, label %6

6:                                                ; preds = %1
  %7 = icmp ugt i64 %2, 2305843009213693951
  br i1 %7, label %mpd_alloc.exit.thread.i.i, label %mpd_alloc.exit.i.i

mpd_alloc.exit.thread.i.i:                        ; preds = %6
  %8 = getelementptr inbounds nuw i8, ptr %4, i64 40
  store ptr null, ptr %8, align 8, !tbaa !10
  br label %13

mpd_alloc.exit.i.i:                               ; preds = %6
  %umul.value.i.i.i = shl nuw i64 %2, 3
  %9 = load ptr, ptr @mpd_mallocfunc, align 8, !tbaa !3
  %10 = tail call ptr %9(i64 noundef %umul.value.i.i.i) #9
  %11 = getelementptr inbounds nuw i8, ptr %4, i64 40
  store ptr %10, ptr %11, align 8, !tbaa !10
  %12 = icmp eq ptr %10, null
  br i1 %12, label %13, label %mpd_qnew.exit

13:                                               ; preds = %mpd_alloc.exit.i.i, %mpd_alloc.exit.thread.i.i
  %14 = load ptr, ptr @mpd_free, align 8, !tbaa !3
  tail call void %14(ptr noundef nonnull %4) #9
  br label %17

mpd_qnew.exit:                                    ; preds = %mpd_alloc.exit.i.i
  store i8 0, ptr %4, align 8, !tbaa !13
  %15 = getelementptr inbounds nuw i8, ptr %4, i64 8
  %16 = getelementptr inbounds nuw i8, ptr %4, i64 32
  tail call void @llvm.memset.p0.i64(ptr noundef nonnull align 8 dereferenceable(24) %15, i8 0, i64 24, i1 false)
  store i64 %2, ptr %16, align 8, !tbaa !14
  br label %18

17:                                               ; preds = %13, %1
  tail call void @mpd_addstatus_raise(ptr noundef %0, i32 noundef 512) #9
  br label %18

18:                                               ; preds = %mpd_qnew.exit, %17
  %.0.i.i4 = phi ptr [ null, %17 ], [ %4, %mpd_qnew.exit ]
  ret ptr %.0.i.i4
}